target datalayout = "e-m:e-p270:32:32-p271:32:32-p272:64:64-i64:64-i128:128-f80:128-n8:16:32:64-S128"
target triple = "x86_64-pc-linux-gnu"

%struct.H40 = type { [1 x i16], i64, [2 x ptr], ptr }

; Function Attrs: alwaysinline nounwind uwtable
define internal i32 @BrotliUnalignedRead32(ptr noundef %0) #3 {
  %2 = alloca ptr, align 8
  %3 = alloca i32, align 4
  store ptr %0, ptr %2, align 8, !tbaa !48
  call void @llvm.lifetime.start.p0(i64 4, ptr %3) #10
  %4 = load ptr, ptr %2, align 8, !tbaa !48
  call void @llvm.memcpy.p0.p0.i64(ptr align 4 %3, ptr align 1 %4, i64 4, i1 false)
  %5 = load i32, ptr %3, align 4, !tbaa !8
  call void @llvm.lifetime.end.p0(i64 4, ptr %3) #10
  ret i32 %5
}

; Function Attrs: alwaysinline nounwind uwtable
define internal i64 @HashBytesH40(ptr noalias noundef %0) #3 {
  %2 = alloca ptr, align 8
  %3 = alloca i32, align 4
  store ptr %0, ptr %2, align 8, !tbaa !76
  call void @llvm.lifetime.start.p0(i64 4, ptr %3) #10
  %4 = load ptr, ptr %2, align 8, !tbaa !76
  %5 = call i32 @BrotliUnalignedRead32(ptr noundef %4)
  %6 = mul i32 %5, 506832829
  store i32 %6, ptr %3, align 4, !tbaa !8
  %7 = load i32, ptr %3, align 4, !tbaa !8
  %8 = lshr i32 %7, 17
  %9 = zext i32 %8 to i64
  call void @llvm.lifetime.end.p0(i64 4, ptr %3) #10
  ret i64 %9
}

; Function Attrs: nounwind uwtable
define internal ptr @TinyHashH40(ptr noundef %0) #0 {
  %2 = alloca ptr, align 8
  store ptr %0, ptr %2, align 8, !tbaa !48
  %3 = load ptr, ptr %2, align 8, !tbaa !48
  %4 = call ptr @HeadH40(ptr noundef %3)
  %5 = getelementptr inbounds i16, ptr %4, i64 32768
  ret ptr %5
}

; Function Attrs: nounwind uwtable
define internal ptr @HeadH40(ptr noundef %0) #0 {
  %2 = alloca ptr, align 8
  store ptr %0, ptr %2, align 8, !tbaa !48
  %3 = load ptr, ptr %2, align 8, !tbaa !48
  %4 = call ptr @AddrH40(ptr noundef %3)
  %5 = getelementptr inbounds i32, ptr %4, i64 32768
  ret ptr %5
}

; Function Attrs: nounwind uwtable
define internal ptr @AddrH40(ptr noundef %0) #0 {
  %2 = alloca ptr, align 8
  store ptr %0, ptr %2, align 8, !tbaa !48
  %3 = load ptr, ptr %2, align 8, !tbaa !48
  ret ptr %3
}

; Function Attrs: nounwind uwtable
define internal void @PrepareH40(ptr noalias noundef %0, i32 noundef %1, i64 noundef %2, ptr noalias noundef %3) #0 {
  %5 = alloca ptr, align 8
  %6 = alloca i32, align 4
  %7 = alloca i64, align 8
  %8 = alloca ptr, align 8
  %9 = alloca ptr, align 8
  %10 = alloca ptr, align 8
  %11 = alloca ptr, align 8
  %12 = alloca i64, align 8
  %13 = alloca i64, align 8
  %14 = alloca i64, align 8
  store ptr %0, ptr %5, align 8, !tbaa !206
  store i32 %1, ptr %6, align 4, !tbaa !8
  store i64 %2, ptr %7, align 8, !tbaa !75
  store ptr %3, ptr %8, align 8, !tbaa !76
  call void @llvm.lifetime.start.p0(i64 8, ptr %9) #10
  %15 = load ptr, ptr %5, align 8, !tbaa !206
  %16 = getelementptr inbounds nuw %struct.H40, ptr %15, i32 0, i32 2
  %17 = getelementptr inbounds [2 x ptr], ptr %16, i64 0, i64 0
  %18 = load ptr, ptr %17, align 8, !tbaa !48
  %19 = call ptr @AddrH40(ptr noundef %18)
  store ptr %19, ptr %9, align 8, !tbaa !88
  call void @llvm.lifetime.start.p0(i64 8, ptr %10) #10
  %20 = load ptr, ptr %5, align 8, !tbaa !206
  %21 = getelementptr inbounds nuw %struct.H40, ptr %20, i32 0, i32 2
  %22 = getelementptr inbounds [2 x ptr], ptr %21, i64 0, i64 0
  %23 = load ptr, ptr %22, align 8, !tbaa !48
  %24 = call ptr @HeadH40(ptr noundef %23)
  store ptr %24, ptr %10, align 8, !tbaa !119
  call void @llvm.lifetime.start.p0(i64 8, ptr %11) #10
  %25 = load ptr, ptr %5, align 8, !tbaa !206
  %26 = getelementptr inbounds nuw %struct.H40, ptr %25, i32 0, i32 2
  %27 = getelementptr inbounds [2 x ptr], ptr %26, i64 0, i64 0
  %28 = load ptr, ptr %27, align 8, !tbaa !48
  %29 = call ptr @TinyHashH40(ptr noundef %28)
  store ptr %29, ptr %11, align 8, !tbaa !76
  call void @llvm.lifetime.start.p0(i64 8, ptr %12) #10
  store i64 512, ptr %12, align 8, !tbaa !75
  %30 = load i32, ptr %6, align 4, !tbaa !8
  %31 = icmp ne i32 %30, 0
  br i1 %31, label %32, label %56

32:                                               ; preds = %4
  %33 = load i64, ptr %7, align 8, !tbaa !75
  %34 = load i64, ptr %12, align 8, !tbaa !75
  %35 = icmp ule i64 %33, %34
  br i1 %35, label %36, label %56

36:                                               ; preds = %32
  call void @llvm.lifetime.start.p0(i64 8, ptr %13) #10
  store i64 0, ptr %13, align 8, !tbaa !75
  br label %37

37:                                               ; preds = %52, %36
  %38 = load i64, ptr %13, align 8, !tbaa !75
  %39 = load i64, ptr %7, align 8, !tbaa !75
  %40 = icmp ult i64 %38, %39
  br i1 %40, label %41, label %55

41:                                               ; preds = %37
  call void @llvm.lifetime.start.p0(i64 8, ptr %14) #10
  %42 = load ptr, ptr %8, align 8, !tbaa !76
  %43 = load i64, ptr %13, align 8, !tbaa !75
  %44 = getelementptr inbounds nuw i8, ptr %42, i64 %43
  %45 = call i64 @HashBytesH40(ptr noundef %44)
  store i64 %45, ptr %14, align 8, !tbaa !75
  %46 = load ptr, ptr %9, align 8, !tbaa !88
  %47 = load i64, ptr %14, align 8, !tbaa !75
  %48 = getelementptr inbounds nuw i32, ptr %46, i64 %47
  store i32 -858993460, ptr %48, align 4, !tbaa !8
  %49 = load ptr, ptr %10, align 8, !tbaa !119
  %50 = load i64, ptr %14, align 8, !tbaa !75
  %51 = getelementptr inbounds nuw i16, ptr %49, i64 %50
  store i16 -13108, ptr %51, align 2, !tbaa !173
  call void @llvm.lifetime.end.p0(i64 8, ptr %14) #10
  br label %52

52:                                               ; preds = %41
  %53 = load i64, ptr %13, align 8, !tbaa !75
  %54 = add i64 %53, 1
  store i64 %54, ptr %13, align 8, !tbaa !75
  br label %37, !llvm.loop !320

55:                                               ; preds = %37
  call void @llvm.lifetime.end.p0(i64 8, ptr %13) #10
  br label %59

56:                                               ; preds = %32, %4
  %57 = load ptr, ptr %9, align 8, !tbaa !88
  call void @llvm.memset.p0.i64(ptr align 4 %57, i8 -52, i64 131072, i1 false)
  %58 = load ptr, ptr %10, align 8, !tbaa !119
  call void @llvm.memset.p0.i64(ptr align 2 %58, i8 0, i64 65536, i1 false)
  br label %59

59:                                               ; preds = %56, %55
  %60 = load ptr, ptr %11, align 8, !tbaa !76
  call void @llvm.memset.p0.i64(ptr align 1 %60, i8 0, i64 65536, i1 false)
  %61 = load ptr, ptr %5, align 8, !tbaa !206
  %62 = getelementptr inbounds nuw %struct.H40, ptr %61, i32 0, i32 0
  %63 = getelementptr inbounds [1 x i16], ptr %62, i64 0, i64 0
  call void @llvm.memset.p0.i64(ptr align 8 %63, i8 0, i64 2, i1 false)
  call void @llvm.lifetime.end.p0(i64 8, ptr %12) #10
  call void @llvm.lifetime.end.p0(i64 8, ptr %11) #10
  call void @llvm.lifetime.end.p0(i64 8, ptr %10) #10
  call void @llvm.lifetime.end.p0(i64 8, ptr %9) #10
  ret void
}